target datalayout = "e-m:e-p270:32:32-p271:32:32-p272:64:64-i64:64-i128:128-f80:128-n8:16:32:64-S128"
target triple = "x86_64-pc-linux-gnu"

%struct.Curl_addrinfo = type { i32, i32, i32, i32, i32, ptr, ptr, ptr }
%struct.Curl_sockaddr_ex = type { i32, i32, i32, i32, %union.anon }
%union.anon = type { %struct.Curl_sockaddr_storage }
%struct.Curl_sockaddr_storage = type { %union.anon.0 }
%union.anon.0 = type { %struct.sockaddr_storage }
%struct.sockaddr_storage = type { i16, [118 x i8], i64 }

; Function Attrs: nounwind uwtable
define hidden i32 @Curl_sock_assign_addr(ptr noundef %0, ptr noundef %1, i32 noundef %2) #0 {
  %4 = alloca i32, align 4
  %5 = alloca ptr, align 8
  %6 = alloca ptr, align 8
  %7 = alloca i32, align 4
  store ptr %0, ptr %5, align 8, !tbaa !3
  store ptr %1, ptr %6, align 8, !tbaa !8
  store i32 %2, ptr %7, align 4, !tbaa !10
  %8 = load ptr, ptr %6, align 8, !tbaa !8
  %9 = getelementptr inbounds nuw %struct.Curl_addrinfo, ptr %8, i32 0, i32 1
  %10 = load i32, ptr %9, align 4, !tbaa !12
  %11 = load ptr, ptr %5, align 8, !tbaa !3
  %12 = getelementptr inbounds nuw %struct.Curl_sockaddr_ex, ptr %11, i32 0, i32 0
  store i32 %10, ptr %12, align 8, !tbaa !16
  %13 = load i32, ptr %7, align 4, !tbaa !10
  switch i32 %13, label %24 [
    i32 3, label %14
    i32 6, label %19
  ]

14:                                               ; preds = %3
  %15 = load ptr, ptr %5, align 8, !tbaa !3
  %16 = getelementptr inbounds nuw %struct.Curl_sockaddr_ex, ptr %15, i32 0, i32 1
  store i32 1, ptr %16, align 4, !tbaa !18
  %17 = load ptr, ptr %5, align 8, !tbaa !3
  %18 = getelementptr inbounds nuw %struct.Curl_sockaddr_ex, ptr %17, i32 0, i32 2
  store i32 6, ptr %18, align 8, !tbaa !19
  br label %29

19:                                               ; preds = %3
  %20 = load ptr, ptr %5, align 8, !tbaa !3
  %21 = getelementptr inbounds nuw %struct.Curl_sockaddr_ex, ptr %20, i32 0, i32 1
  store i32 1, ptr %21, align 4, !tbaa !18
  %22 = load ptr, ptr %5, align 8, !tbaa !3
  %23 = getelementptr inbounds nuw %struct.Curl_sockaddr_ex, ptr %22, i32 0, i32 2
  store i32 0, ptr %23, align 8, !tbaa !19
  br label %29

24:                                               ; preds = %3
  %25 = load ptr, ptr %5, align 8, !tbaa !3
  %26 = getelementptr inbounds nuw %struct.Curl_sockaddr_ex, ptr %25, i32 0, i32 1
  store i32 2, ptr %26, align 4, !tbaa !18
  %27 = load ptr, ptr %5, align 8, !tbaa !3
  %28 = getelementptr inbounds nuw %struct.Curl_sockaddr_ex, ptr %27, i32 0, i32 2
  store i32 17, ptr %28, align 8, !tbaa !19
  br label %29

29:                                               ; preds = %24, %19, %14
  %30 = load ptr, ptr %6, align 8, !tbaa !8
  %31 = getelementptr inbounds nuw %struct.Curl_addrinfo, ptr %30, i32 0, i32 4
  %32 = load i32, ptr %31, align 8, !tbaa !20
  %33 = load ptr, ptr %5, align 8, !tbaa !3
  %34 = getelementptr inbounds nuw %struct.Curl_sockaddr_ex, ptr %33, i32 0, i32 3
  store i32 %32, ptr %34, align 4, !tbaa !21
  %35 = load ptr, ptr %5, align 8, !tbaa !3
  %36 = getelementptr inbounds nuw %struct.Curl_sockaddr_ex, ptr %35, i32 0, i32 3
  %37 = load i32, ptr %36, align 4, !tbaa !21
  %38 = zext i32 %37 to i64
  %39 = icmp ugt i64 %38, 128
  br i1 %39, label %40, label %43

40:                                               ; preds = %29
  br label %41

41:                                               ; preds = %40
  br label %42

42:                                               ; preds = %41
  store i32 100, ptr %4, align 4
  br label %53

43:                                               ; preds = %29
  %44 = load ptr, ptr %5, align 8, !tbaa !3
  %45 = getelementptr inbounds nuw %struct.Curl_sockaddr_ex, ptr %44, i32 0, i32 4
  %46 = load ptr, ptr %6, align 8, !tbaa !8
  %47 = getelementptr inbounds nuw %struct.Curl_addrinfo, ptr %46, i32 0, i32 6
  %48 = load ptr, ptr %47, align 8, !tbaa !22
  %49 = load ptr, ptr %5, align 8, !tbaa !3
  %50 = getelementptr inbounds nuw %struct.Curl_sockaddr_ex, ptr %49, i32 0, i32 3
  %51 = load i32, ptr %50, align 4, !tbaa !21
  %52 = zext i32 %51 to i64
  call void @llvm.memcpy.p0.p0.i64(ptr align 8 %45, ptr align 2 %48, i64 %52, i1 false)
  store i32 0, ptr %4, align 4
  br label %53

53:                                               ; preds = %43, %42
  %54 = load i32, ptr %4, align 4
  ret i32 %54
}