; Function Attrs: mustprogress nofree norecurse nosync nounwind willreturn memory(readwrite, inaccessiblemem: none) uwtable
define hidden range(i32 0, 101) i32 @Curl_sock_assign_addr(ptr noundef writeonly captures(none) initializes((0, 16)) %0, ptr noundef readonly captures(none) %1, i32 noundef %2) local_unnamed_addr #0 {
  %4 = getelementptr inbounds nuw i8, ptr %1, i64 4
  %5 = load i32, ptr %4, align 4, !tbaa !3
  store i32 %5, ptr %0, align 8, !tbaa !12
  %6 = getelementptr inbounds nuw i8, ptr %0, i64 4
  %7 = getelementptr inbounds nuw i8, ptr %0, i64 8
  switch i32 %2, label %9 [
    i32 3, label %10
    i32 6, label %8
  ]

8:                                                ; preds = %3
  br label %10

9:                                                ; preds = %3
  br label %10

10:                                               ; preds = %3, %9, %8
  %.sink16 = phi i32 [ 2, %9 ], [ 1, %8 ], [ 1, %3 ]
  %.sink = phi i32 [ 17, %9 ], [ 0, %8 ], [ 6, %3 ]
  store i32 %.sink16, ptr %6, align 4, !tbaa !14
  store i32 %.sink, ptr %7, align 8, !tbaa !15
  %11 = getelementptr inbounds nuw i8, ptr %1, i64 16
  %12 = load i32, ptr %11, align 8, !tbaa !16
  %13 = getelementptr inbounds nuw i8, ptr %0, i64 12
  store i32 %12, ptr %13, align 4, !tbaa !17
  %14 = icmp ugt i32 %12, 128
  br i1 %14, label %20, label %15

15:                                               ; preds = %10
  %16 = zext nneg i32 %12 to i64
  %17 = getelementptr inbounds nuw i8, ptr %0, i64 16
  %18 = getelementptr inbounds nuw i8, ptr %1, i64 32
  %19 = load ptr, ptr %18, align 8, !tbaa !18
  tail call void @llvm.memcpy.p0.p0.i64(ptr nonnull align 8 %17, ptr align 2 %19, i64 %16, i1 false)
  br label %20

20:                                               ; preds = %10, %15
  %.0 = phi i32 [ 0, %15 ], [ 100, %10 ]
  ret i32 %.0
}